target datalayout = "e-m:e-p270:32:32-p271:32:32-p272:64:64-i64:64-i128:128-f80:128-n8:16:32:64-S128"
target triple = "x86_64-pc-linux-gnu"

@.str.2 = private unnamed_addr constant [2 x i8] c"\0A\00", align 1

; Function Attrs: nounwind uwtable
define ptr @prte_stackframe_output_string() #0 {
  %1 = alloca ptr, align 8
  %2 = alloca i32, align 4
  %3 = alloca i32, align 4
  %4 = alloca i64, align 8
  %5 = alloca ptr, align 8
  %6 = alloca ptr, align 8
  %7 = alloca i32, align 4
  call void @llvm.lifetime.start.p0(i64 4, ptr %2) #8
  call void @llvm.lifetime.start.p0(i64 4, ptr %3) #8
  call void @llvm.lifetime.start.p0(i64 8, ptr %4) #8
  call void @llvm.lifetime.start.p0(i64 8, ptr %5) #8
  call void @llvm.lifetime.start.p0(i64 8, ptr %6) #8
  store i64 0, ptr %4, align 8, !tbaa !14
  %8 = call i32 @prte_backtrace_buffer(ptr noundef %6, ptr noundef %2)
  %9 = icmp ne i32 0, %8
  br i1 %9, label %10, label %11

10:                                               ; preds = %0
  store ptr null, ptr %1, align 8
  store i32 1, ptr %7, align 4
  br label %74

11:                                               ; preds = %0
  store i32 3, ptr %3, align 4, !tbaa !3
  br label %12

12:                                               ; preds = %34, %11
  %13 = load i32, ptr %3, align 4, !tbaa !3
  %14 = load i32, ptr %2, align 4, !tbaa !3
  %15 = icmp slt i32 %13, %14
  br i1 %15, label %16, label %37

16:                                               ; preds = %12
  %17 = load ptr, ptr %6, align 8, !tbaa !7
  %18 = load i32, ptr %3, align 4, !tbaa !3
  %19 = sext i32 %18 to i64
  %20 = getelementptr inbounds ptr, ptr %17, i64 %19
  %21 = load ptr, ptr %20, align 8, !tbaa !10
  %22 = icmp eq ptr null, %21
  br i1 %22, label %23, label %24

23:                                               ; preds = %16
  br label %37

24:                                               ; preds = %16
  %25 = load ptr, ptr %6, align 8, !tbaa !7
  %26 = load i32, ptr %3, align 4, !tbaa !3
  %27 = sext i32 %26 to i64
  %28 = getelementptr inbounds ptr, ptr %25, i64 %27
  %29 = load ptr, ptr %28, align 8, !tbaa !10
  %30 = call i64 @strlen(ptr noundef %29) #10
  %31 = add i64 %30, 1
  %32 = load i64, ptr %4, align 8, !tbaa !14
  %33 = add i64 %32, %31
  store i64 %33, ptr %4, align 8, !tbaa !14
  br label %34

34:                                               ; preds = %24
  %35 = load i32, ptr %3, align 4, !tbaa !3
  %36 = add nsw i32 %35, 1
  store i32 %36, ptr %3, align 4, !tbaa !3
  br label %12, !llvm.loop !23

37:                                               ; preds = %23, %12
  %38 = load i64, ptr %4, align 8, !tbaa !14
  %39 = add i64 %38, 1
  %40 = call noalias ptr @malloc(i64 noundef %39) #11
  store ptr %40, ptr %5, align 8, !tbaa !10
  %41 = load ptr, ptr %5, align 8, !tbaa !10
  %42 = icmp eq ptr null, %41
  br i1 %42, label %43, label %44

43:                                               ; preds = %37
  store ptr null, ptr %1, align 8
  store i32 1, ptr %7, align 4
  br label %74

44:                                               ; preds = %37
  %45 = load ptr, ptr %5, align 8, !tbaa !10
  store i8 0, ptr %45, align 1, !tbaa !24
  store i32 3, ptr %3, align 4, !tbaa !3
  br label %46

46:                                               ; preds = %68, %44
  %47 = load i32, ptr %3, align 4, !tbaa !3
  %48 = load i32, ptr %2, align 4, !tbaa !3
  %49 = icmp slt i32 %47, %48
  br i1 %49, label %50, label %71

50:                                               ; preds = %46
  %51 = load ptr, ptr %6, align 8, !tbaa !7
  %52 = load i32, ptr %3, align 4, !tbaa !3
  %53 = sext i32 %52 to i64
  %54 = getelementptr inbounds ptr, ptr %51, i64 %53
  %55 = load ptr, ptr %54, align 8, !tbaa !10
  %56 = icmp eq ptr null, %55
  br i1 %56, label %57, label %58

57:                                               ; preds = %50
  br label %71

58:                                               ; preds = %50
  %59 = load ptr, ptr %5, align 8, !tbaa !10
  %60 = load ptr, ptr %6, align 8, !tbaa !7
  %61 = load i32, ptr %3, align 4, !tbaa !3
  %62 = sext i32 %61 to i64
  %63 = getelementptr inbounds ptr, ptr %60, i64 %62
  %64 = load ptr, ptr %63, align 8, !tbaa !10
  %65 = call ptr @strcat(ptr noundef %59, ptr noundef %64) #8
  %66 = load ptr, ptr %5, align 8, !tbaa !10
  %67 = call ptr @strcat(ptr noundef %66, ptr noundef @.str.2) #8
  br label %68

68:                                               ; preds = %58
  %69 = load i32, ptr %3, align 4, !tbaa !3
  %70 = add nsw i32 %69, 1
  store i32 %70, ptr %3, align 4, !tbaa !3
  br label %46, !llvm.loop !25

71:                                               ; preds = %57, %46
  %72 = load ptr, ptr %6, align 8, !tbaa !7
  call void @free(ptr noundef %72) #8
  %73 = load ptr, ptr %5, align 8, !tbaa !10
  store ptr %73, ptr %1, align 8
  store i32 1, ptr %7, align 4
  br label %74

74:                                               ; preds = %71, %43, %10
  call void @llvm.lifetime.end.p0(i64 8, ptr %6) #8
  call void @llvm.lifetime.end.p0(i64 8, ptr %5) #8
  call void @llvm.lifetime.end.p0(i64 8, ptr %4) #8
  call void @llvm.lifetime.end.p0(i64 4, ptr %3) #8
  call void @llvm.lifetime.end.p0(i64 4, ptr %2) #8
  %75 = load ptr, ptr %1, align 8
  ret ptr %75
}