; Function Attrs: nounwind uwtable
define noundef ptr @prte_stackframe_output_string() local_unnamed_addr #0 {
  %1 = alloca i32, align 4
  %2 = alloca ptr, align 8
  call void @llvm.lifetime.start.p0(i64 4, ptr nonnull %1) #15
  call void @llvm.lifetime.start.p0(i64 8, ptr nonnull %2) #15
  %3 = call i32 @prte_backtrace_buffer(ptr noundef nonnull %2, ptr noundef nonnull %1) #15
  %.not = icmp eq i32 %3, 0
  br i1 %.not, label %.preheader, label %25

.preheader:                                       ; preds = %0
  %4 = load i32, ptr %1, align 4, !tbaa !3
  %5 = icmp sgt i32 %4, 3
  br i1 %5, label %.lr.ph, label %._crit_edge

.lr.ph:                                           ; preds = %.preheader
  %6 = load ptr, ptr %2, align 8, !tbaa !7
  %wide.trip.count = zext nneg i32 %4 to i64
  br label %7

7:                                                ; preds = %.lr.ph, %11
  %indvars.iv = phi i64 [ 3, %.lr.ph ], [ %indvars.iv.next, %11 ]
  %.01521 = phi i64 [ 0, %.lr.ph ], [ %14, %11 ]
  %8 = getelementptr inbounds nuw ptr, ptr %6, i64 %indvars.iv
  %9 = load ptr, ptr %8, align 8, !tbaa !10
  %10 = icmp eq ptr %9, null
  br i1 %10, label %._crit_edge.loopexit, label %11

11:                                               ; preds = %7
  %12 = call i64 @strlen(ptr noundef nonnull dereferenceable(1) %9) #17
  %13 = add i64 %.01521, 1
  %14 = add i64 %13, %12
  %indvars.iv.next = add nuw nsw i64 %indvars.iv, 1
  %exitcond.not = icmp eq i64 %indvars.iv.next, %wide.trip.count
  br i1 %exitcond.not, label %._crit_edge.loopexit, label %7, !llvm.loop !23

._crit_edge.loopexit:                             ; preds = %7, %11
  %.015.lcssa.ph = phi i64 [ %14, %11 ], [ %.01521, %7 ]
  %15 = add i64 %.015.lcssa.ph, 1
  br label %._crit_edge

._crit_edge:                                      ; preds = %._crit_edge.loopexit, %.preheader
  %.015.lcssa = phi i64 [ 1, %.preheader ], [ %15, %._crit_edge.loopexit ]
  %16 = call noalias ptr @malloc(i64 noundef %.015.lcssa) #18
  %17 = icmp eq ptr %16, null
  br i1 %17, label %25, label %18

18:                                               ; preds = %._crit_edge
  store i8 0, ptr %16, align 1, !tbaa !24
  %.pre = load ptr, ptr %2, align 8, !tbaa !7
  br i1 %5, label %.lr.ph28, label %._crit_edge29

.lr.ph28:                                         ; preds = %18
  %wide.trip.count35 = zext nneg i32 %4 to i64
  br label %19

19:                                               ; preds = %.lr.ph28, %23
  %indvars.iv32 = phi i64 [ 3, %.lr.ph28 ], [ %indvars.iv.next33, %23 ]
  %20 = getelementptr inbounds nuw ptr, ptr %.pre, i64 %indvars.iv32
  %21 = load ptr, ptr %20, align 8, !tbaa !10
  %22 = icmp eq ptr %21, null
  br i1 %22, label %._crit_edge29, label %23

23:                                               ; preds = %19
  %24 = call ptr @strcat(ptr noundef nonnull dereferenceable(1) %16, ptr noundef nonnull dereferenceable(1) %21) #15
  %strlen = call i64 @strlen(ptr nonnull dereferenceable(1) %16)
  %endptr = getelementptr inbounds i8, ptr %16, i64 %strlen
  store i16 10, ptr %endptr, align 1
  %indvars.iv.next33 = add nuw nsw i64 %indvars.iv32, 1
  %exitcond36.not = icmp eq i64 %indvars.iv.next33, %wide.trip.count35
  br i1 %exitcond36.not, label %._crit_edge29, label %19, !llvm.loop !25

._crit_edge29:                                    ; preds = %23, %19, %18
  call void @free(ptr noundef %.pre) #15
  br label %25

25:                                               ; preds = %._crit_edge, %0, %._crit_edge29
  %.0 = phi ptr [ %16, %._crit_edge29 ], [ null, %0 ], [ null, %._crit_edge ]
  call void @llvm.lifetime.end.p0(i64 8, ptr nonnull %2) #15
  call void @llvm.lifetime.end.p0(i64 4, ptr nonnull %1) #15
  ret ptr %.0
}